target datalayout = "e-m:e-p270:32:32-p271:32:32-p272:64:64-i64:64-i128:128-f80:128-n8:16:32:64-S128"
target triple = "x86_64-pc-linux-gnu"

%struct.expert_field = type { i32, i32 }

@ei_gsm_a_bssmap_extraneous_data = internal global %struct.expert_field zeroinitializer, align 4
@g_tree = internal global ptr null, align 8
@hf_gsm_a_bssmap_apdu_protocol_id = internal global i32 0, align 4
@hf_gsm_a_bssmap_apdu = internal global i32 0, align 4
@.str.466 = private unnamed_addr constant [5 x i8] c"APDU\00", align 1
@gsm_bsslap_handle = internal global ptr null, align 8

; Function Attrs: null_pointer_is_valid sspstrong uwtable
define internal zeroext i16 @be_apdu(ptr noundef %0, ptr noundef %1, ptr noundef %2, i32 noundef %3, i32 noundef %4, ptr noundef %5, i32 noundef %6) #1 {
  %8 = alloca ptr, align 8
  %9 = alloca ptr, align 8
  %10 = alloca ptr, align 8
  %11 = alloca i32, align 4
  %12 = alloca i32, align 4
  %13 = alloca ptr, align 8
  %14 = alloca i32, align 4
  %15 = alloca i32, align 4
  %16 = alloca i8, align 1
  %17 = alloca ptr, align 8
  store ptr %0, ptr %8, align 8
  store ptr %1, ptr %9, align 8
  store ptr %2, ptr %10, align 8
  store i32 %3, ptr %11, align 4
  store i32 %4, ptr %12, align 4
  store ptr %5, ptr %13, align 8
  store i32 %6, ptr %14, align 4
  call void @llvm.lifetime.start.p0(i64 4, ptr %15) #5
  call void @llvm.lifetime.start.p0(i64 1, ptr %16) #5
  call void @llvm.lifetime.start.p0(i64 8, ptr %17) #5
  %18 = load i32, ptr %11, align 4
  store i32 %18, ptr %15, align 4
  %19 = load ptr, ptr %9, align 8
  %20 = load i32, ptr @hf_gsm_a_bssmap_apdu, align 4
  %21 = load ptr, ptr %8, align 8
  %22 = load i32, ptr %15, align 4
  %23 = load i32, ptr %12, align 4
  %24 = call ptr (ptr, i32, ptr, i32, i32, ptr, ptr, ...) @proto_tree_add_bytes_format(ptr noundef %19, i32 noundef %20, ptr noundef %21, i32 noundef %22, i32 noundef %23, ptr noundef null, ptr noundef @.str.466)
  %25 = load ptr, ptr %8, align 8
  %26 = load i32, ptr %15, align 4
  %27 = call zeroext i8 @tvb_get_uint8(ptr noundef %25, i32 noundef %26)
  store i8 %27, ptr %16, align 1
  %28 = load ptr, ptr %9, align 8
  %29 = load i32, ptr @hf_gsm_a_bssmap_apdu_protocol_id, align 4
  %30 = load ptr, ptr %8, align 8
  %31 = load i32, ptr %15, align 4
  %32 = call ptr @proto_tree_add_item(ptr noundef %28, i32 noundef %29, ptr noundef %30, i32 noundef %31, i32 noundef 1, i32 noundef 0)
  %33 = load i32, ptr %15, align 4
  %34 = add i32 %33, 1
  store i32 %34, ptr %15, align 4
  %35 = load i32, ptr %12, align 4
  %36 = add i32 %35, -1
  store i32 %36, ptr %12, align 4
  %37 = load i8, ptr %16, align 1
  %38 = zext i8 %37 to i32
  switch i32 %38, label %53 [
    i32 1, label %39
    i32 2, label %54
    i32 3, label %54
  ]

39:                                               ; preds = %7
  %40 = load ptr, ptr %8, align 8
  %41 = load i32, ptr %15, align 4
  %42 = load i32, ptr %12, align 4
  %43 = call ptr @tvb_new_subset_length(ptr noundef %40, i32 noundef %41, i32 noundef %42)
  store ptr %43, ptr %17, align 8
  %44 = load ptr, ptr @gsm_bsslap_handle, align 8
  %45 = icmp ne ptr %44, null
  br i1 %45, label %46, label %52

46:                                               ; preds = %39
  %47 = load ptr, ptr @gsm_bsslap_handle, align 8
  %48 = load ptr, ptr %17, align 8
  %49 = load ptr, ptr %10, align 8
  %50 = load ptr, ptr @g_tree, align 8
  %51 = call i32 @call_dissector(ptr noundef %47, ptr noundef %48, ptr noundef %49, ptr noundef %50)
  br label %52

52:                                               ; preds = %46, %39
  br label %54

53:                                               ; preds = %7
  br label %54

54:                                               ; preds = %53, %7, %7, %52
  %55 = load i32, ptr %12, align 4
  %56 = load i32, ptr %15, align 4
  %57 = add i32 %56, %55
  store i32 %57, ptr %15, align 4
  %58 = load i32, ptr %12, align 4
  %59 = load i32, ptr %15, align 4
  %60 = load i32, ptr %11, align 4
  %61 = sub i32 %59, %60
  %62 = icmp ugt i32 %58, %61
  br i1 %62, label %63, label %81

63:                                               ; preds = %54
  %64 = load ptr, ptr %9, align 8
  %65 = load ptr, ptr %10, align 8
  %66 = load ptr, ptr %8, align 8
  %67 = load i32, ptr %15, align 4
  %68 = load i32, ptr %12, align 4
  %69 = load i32, ptr %15, align 4
  %70 = load i32, ptr %11, align 4
  %71 = sub i32 %69, %70
  %72 = sub i32 %68, %71
  %73 = call ptr @proto_tree_add_expert(ptr noundef %64, ptr noundef %65, ptr noundef @ei_gsm_a_bssmap_extraneous_data, ptr noundef %66, i32 noundef %67, i32 noundef %72)
  %74 = load i32, ptr %12, align 4
  %75 = load i32, ptr %15, align 4
  %76 = load i32, ptr %11, align 4
  %77 = sub i32 %75, %76
  %78 = sub i32 %74, %77
  %79 = load i32, ptr %15, align 4
  %80 = add i32 %79, %78
  store i32 %80, ptr %15, align 4
  br label %81

81:                                               ; preds = %63, %54
  %82 = load i32, ptr %15, align 4
  %83 = load i32, ptr %11, align 4
  %84 = sub i32 %82, %83
  %85 = trunc i32 %84 to i16
  call void @llvm.lifetime.end.p0(i64 8, ptr %17) #5
  call void @llvm.lifetime.end.p0(i64 1, ptr %16) #5
  call void @llvm.lifetime.end.p0(i64 4, ptr %15) #5
  ret i16 %85
}