; Function Attrs: null_pointer_is_valid sspstrong uwtable
define internal noundef zeroext i16 @be_apdu(ptr noundef %0, ptr noundef %1, ptr noundef %2, i32 noundef %3, i32 noundef %4, ptr readnone captures(none) %5, i32 %6) #1 {
  %8 = load i32, ptr @hf_gsm_a_bssmap_apdu, align 4
  %9 = tail call ptr (ptr, i32, ptr, i32, i32, ptr, ptr, ...) @proto_tree_add_bytes_format(ptr noundef %1, i32 noundef %8, ptr noundef %0, i32 noundef %3, i32 noundef %4, ptr noundef null, ptr noundef nonnull @.str.466)
  %10 = tail call zeroext i8 @tvb_get_uint8(ptr noundef %0, i32 noundef %3)
  %11 = load i32, ptr @hf_gsm_a_bssmap_apdu_protocol_id, align 4
  %12 = tail call ptr @proto_tree_add_item(ptr noundef %1, i32 noundef %11, ptr noundef %0, i32 noundef %3, i32 noundef 1, i32 noundef 0)
  %cond = icmp eq i8 %10, 1
  br i1 %cond, label %13, label %21

13:                                               ; preds = %7
  %14 = add i32 %4, -1
  %15 = add i32 %3, 1
  %16 = tail call ptr @tvb_new_subset_length(ptr noundef %0, i32 noundef %15, i32 noundef %14)
  %17 = load ptr, ptr @gsm_bsslap_handle, align 8
  %.not = icmp eq ptr %17, null
  br i1 %.not, label %21, label %18

18:                                               ; preds = %13
  %19 = load ptr, ptr @g_tree, align 8
  %20 = tail call i32 @call_dissector(ptr noundef nonnull %17, ptr noundef %16, ptr noundef %2, ptr noundef %19)
  br label %21

21:                                               ; preds = %7, %13, %18
  %22 = add i32 %4, %3
  %23 = icmp eq i32 %4, 0
  br i1 %23, label %24, label %27

24:                                               ; preds = %21
  %25 = tail call ptr @proto_tree_add_expert(ptr noundef %1, ptr noundef %2, ptr noundef nonnull @ei_gsm_a_bssmap_extraneous_data, ptr noundef %0, i32 noundef %22, i32 noundef -1)
  %26 = add i32 %22, -1
  br label %27

27:                                               ; preds = %24, %21
  %.0 = phi i32 [ %26, %24 ], [ %22, %21 ]
  %28 = sub i32 %.0, %3
  %29 = trunc i32 %28 to i16
  ret i16 %29
}